(lp0
(imodel
Performer
p1
(dp2
S'country'
p3
S'Germany'
p4
sS'name'
p5
S'Oomph!'
p6
sS'composition_list'
p7
(lp8
(imodel
Composition
p9
(dp10
S'duration'
p11
S'4.19'
p12
sS'performer'
p13
S'Oomph!'
p14
sS'title'
p15
S'Niemand'
p16
sba(imodel
Composition
p17
(dp18
g11
S'3.58'
p19
sg13
S'Oomph!'
p20
sg15
S'Atem'
p21
sba(imodel
Composition
p22
(dp23
g11
S'4.03'
p24
sg13
S'Oomph!'
p25
sg15
S'Das Weisse Licht'
p26
sba(imodel
Composition
p27
(dp28
g11
S'4.04'
p29
sg13
S'Oomph!'
p30
sg15
S'Jede Reise Hat Ein Ende'
p31
sbasba(imodel
Performer
p32
(dp33
g3
S'Ukraine'
p34
sg5
S'Okean Elzy'
p35
sg7
(lp36
(imodel
Composition
p37
(dp38
g11
S'4.53'
p39
sg13
S'Okean Elzy'
p40
sg15
S'Everest'
p41
sba(imodel
Composition
p42
(dp43
g11
S'3.35'
p44
sg13
S'Okean Elzy'
p45
sg15
S'Htos v nebo letyt'
p46
sba(imodel
Composition
p47
(dp48
g11
S'4.12'
p49
sg13
S'Okean Elzy'
p50
sg15
S'Maizhe Vesna'
p51
sbasba(imodel
Performer
p52
(dp53
g3
S'Russia'
p54
sg5
S'Louna'
p55
sg7
(lp56
(imodel
Composition
p57
(dp58
g11
S'4.29'
p59
sg13
S'Louna'
p60
sg15
S'Sozhmi Kulak i bey'
p61
sba(imodel
Composition
p62
(dp63
g11
S'4.01'
p64
sg13
S'Louna'
p65
sg15
S'1984'
p66
sba(imodel
Composition
p67
(dp68
g11
S'5.47'
p69
sg13
S'Louna'
p70
sg15
S'Shramy'
p71
sbasba(imodel
Performer
p72
(dp73
g3
S'Germany'
p74
sg5
S'Hans Zimmer'
p75
sg7
(lp76
(imodel
Composition
p77
(dp78
g11
S'4.28'
p79
sg13
S'Hans Zimmer'
p80
sg15
S'Batman Rises'
p81
sba(imodel
Composition
p82
(dp83
g11
S'4.19'
p84
sg13
S'Hans Zimmer'
p85
sg15
S'Tennessee'
p86
sba(imodel
Composition
p87
(dp88
g11
S'4.09'
p89
sg13
S'Hans Zimmer'
p90
sg15
S'Chevaliers De SanGreal'
p91
sbasba(imodel
Performer
p92
(dp93
g3
S'Russia'
p94
sg5
S'7B'
p95
sg7
(lp96
(imodel
Composition
p97
(dp98
g11
S'3.54'
p99
sg13
S'7B'
p100
sg15
S'Nekreshenaya Luna'
p101
sba(imodel
Composition
p102
(dp103
g11
S'4.59'
p104
sg13
S'7B'
p105
sg15
S'Bessmertiye'
p106
sba(imodel
Composition
p107
(dp108
g11
S'4.24'
p109
sg13
S'7B'
p110
sg15
S'Nashla kosa na kamen'
p111
sbasba(imodel
Performer
p112
(dp113
g3
S'Russia'
p114
sg5
S'Splinter'
p115
sg7
(lp116
(imodel
Composition
p117
(dp118
g11
S'3.58'
p119
sg13
S'Splin'
p120
sg15
g115
sba(imodel
Composition
p121
(dp122
g11
S'3.44'
p123
sg13
S'Splin'
p124
sg15
g115
sba(imodel
Composition
p125
(dp126
g11
S'4.01'
p127
sg13
S'Splin'
p128
sg15
g115
sba(imodel
Composition
p129
(dp130
g11
S'2.22'
p131
sg13
S'Splin'
p132
sg15
g115
sbasba(imodel
Performer
p133
(dp134
g3
S'Russia'
p135
sg5
S'Oxxxymiron'
p136
sg7
(lp137
(imodel
Composition
p138
(dp139
g11
S'4.23'
p140
sg13
S'Oxxxymiron'
p141
sg15
S'Tam gde nas net'
p142
sba(imodel
Composition
p143
(dp144
g11
S'4.02'
p145
sg13
S'Oxxxymiron'
p146
sg15
S'Polygon'
p147
sba(imodel
Composition
p148
(dp149
g11
S'3.58'
p150
sg13
S'Oxxxymiron'
p151
sg15
S'Gorod pod podoshvoi'
p152
sbasba(imodel
Performer
p153
(dp154
g3
S'Sweden'
p155
sg5
S'Sabaton'
p156
sg7
(lp157
(imodel
Composition
p158
(dp159
g11
S'3.48'
p160
sg13
S'Sabaton'
p161
sg15
S'Panzer Battalion'
p162
sba(imodel
Composition
p163
(dp164
g11
S'3.59'
p165
sg13
S'Sabaton'
p166
sg15
S'Poltava'
p167
sba(imodel
Composition
p168
(dp169
g11
S'4.04'
p170
sg13
S'Sabaton'
p171
sg15
S'Angels are calling'
p172
sbasba(imodel
Performer
p173
(dp174
g3
S'USA'
p175
sg5
S'Bill Clinton'
p176
sg7
(lp177
sba(imodel
Performer
p178
(dp179
g3
S'USA'
p180
sg5
S'Red(music band)'
p181
sg7
(lp182
(imodel
Composition
p183
(dp184
g11
S'3.59'
p185
sg13
S'Red'
p186
sg15
S'Power Attack'
p187
sbasba.